target datalayout = "e-m:e-p270:32:32-p271:32:32-p272:64:64-i64:64-i128:128-f80:128-n8:16:32:64-S128"
target triple = "x86_64-pc-linux-gnu"

%struct.CTState = type { ptr, i32, i32, ptr, ptr, ptr, %struct.CCallback, [128 x i16] }
%struct.CCallback = type { [8 x %union.FPRCBArg], [8 x i64], ptr, ptr, ptr, i32, i32, i32 }
%union.FPRCBArg = type { double }
%union.TValue = type { i64 }
%struct.GCRef = type { i64 }
%struct.MRef = type { i64 }
%struct.lua_State = type { %struct.GCRef, i8, i8, i8, i8, %struct.MRef, %struct.GCRef, ptr, ptr, %struct.MRef, %struct.MRef, %struct.GCRef, %struct.GCRef, ptr, i32 }
%struct.CType = type { i32, i32, i16, i16, %struct.GCRef }
%struct.GCfuncC = type { %struct.GCRef, i8, i8, i8, i8, %struct.GCRef, %struct.GCRef, %struct.MRef, ptr, [1 x %union.TValue] }
%struct.GCfuncL = type { %struct.GCRef, i8, i8, i8, i8, %struct.GCRef, %struct.GCRef, %struct.MRef, [1 x %struct.GCRef] }
%struct.GCproto = type { %struct.GCRef, i8, i8, i8, i8, i32, i32, %struct.GCRef, %struct.MRef, %struct.MRef, i32, i32, i32, i8, i8, i16, %struct.GCRef, i32, i32, %struct.MRef, %struct.MRef, %struct.MRef }

; Function Attrs: alwaysinline nounwind uwtable
define internal i32 @ctype_check(ptr noundef %0, i32 noundef %1) #3 {
  %3 = alloca ptr, align 8
  %4 = alloca i32, align 4
  store ptr %0, ptr %3, align 8, !tbaa !4
  store i32 %1, ptr %4, align 4, !tbaa !22
  %5 = load i32, ptr %4, align 4, !tbaa !22
  ret i32 %5
}

; Function Attrs: alwaysinline nounwind uwtable
define internal ptr @ctype_child(ptr noundef %0, ptr noundef %1) #3 {
  %3 = alloca ptr, align 8
  %4 = alloca ptr, align 8
  store ptr %0, ptr %3, align 8, !tbaa !4
  store ptr %1, ptr %4, align 8, !tbaa !69
  %5 = load ptr, ptr %3, align 8, !tbaa !4
  %6 = load ptr, ptr %4, align 8, !tbaa !69
  %7 = getelementptr inbounds nuw %struct.CType, ptr %6, i32 0, i32 0
  %8 = load i32, ptr %7, align 8, !tbaa !70
  %9 = and i32 %8, 65535
  %10 = call ptr @ctype_get(ptr noundef %5, i32 noundef %9)
  ret ptr %10
}

; Function Attrs: alwaysinline nounwind uwtable
define internal ptr @ctype_get(ptr noundef %0, i32 noundef %1) #3 {
  %3 = alloca ptr, align 8
  %4 = alloca i32, align 4
  store ptr %0, ptr %3, align 8, !tbaa !4
  store i32 %1, ptr %4, align 4, !tbaa !22
  %5 = load ptr, ptr %3, align 8, !tbaa !4
  %6 = getelementptr inbounds nuw %struct.CTState, ptr %5, i32 0, i32 0
  %7 = load ptr, ptr %6, align 8, !tbaa !93
  %8 = load ptr, ptr %3, align 8, !tbaa !4
  %9 = load i32, ptr %4, align 4, !tbaa !22
  %10 = call i32 @ctype_check(ptr noundef %8, i32 noundef %9)
  %11 = zext i32 %10 to i64
  %12 = getelementptr inbounds nuw %struct.CType, ptr %7, i64 %11
  ret ptr %12
}

; Function Attrs: alwaysinline nounwind uwtable
define internal ptr @ctype_raw(ptr noundef %0, i32 noundef %1) #3 {
  %3 = alloca ptr, align 8
  %4 = alloca i32, align 4
  %5 = alloca ptr, align 8
  store ptr %0, ptr %3, align 8, !tbaa !4
  store i32 %1, ptr %4, align 4, !tbaa !22
  call void @llvm.lifetime.start.p0(i64 8, ptr %5) #9
  %6 = load ptr, ptr %3, align 8, !tbaa !4
  %7 = load i32, ptr %4, align 4, !tbaa !22
  %8 = call ptr @ctype_get(ptr noundef %6, i32 noundef %7)
  store ptr %8, ptr %5, align 8, !tbaa !69
  br label %9

9:                                                ; preds = %15, %2
  %10 = load ptr, ptr %5, align 8, !tbaa !69
  %11 = getelementptr inbounds nuw %struct.CType, ptr %10, i32 0, i32 0
  %12 = load i32, ptr %11, align 8, !tbaa !70
  %13 = lshr i32 %12, 28
  %14 = icmp eq i32 %13, 8
  br i1 %14, label %15, label %19

15:                                               ; preds = %9
  %16 = load ptr, ptr %3, align 8, !tbaa !4
  %17 = load ptr, ptr %5, align 8, !tbaa !69
  %18 = call ptr @ctype_child(ptr noundef %16, ptr noundef %17)
  store ptr %18, ptr %5, align 8, !tbaa !69
  br label %9, !llvm.loop !103

19:                                               ; preds = %9
  %20 = load ptr, ptr %5, align 8, !tbaa !69
  call void @llvm.lifetime.end.p0(i64 8, ptr %5) #9
  ret ptr %20
}

; Function Attrs: nounwind uwtable
define internal void @callback_conv_result(ptr noundef %0, ptr noundef %1, ptr noundef %2) #0 {
  %4 = alloca ptr, align 8
  %5 = alloca ptr, align 8
  %6 = alloca ptr, align 8
  %7 = alloca ptr, align 8
  %8 = alloca ptr, align 8
  store ptr %0, ptr %4, align 8, !tbaa !4
  store ptr %1, ptr %5, align 8, !tbaa !24
  store ptr %2, ptr %6, align 8, !tbaa !60
  call void @llvm.lifetime.start.p0(i64 8, ptr %7) #9
  %9 = load ptr, ptr %4, align 8, !tbaa !4
  %10 = load ptr, ptr %5, align 8, !tbaa !24
  %11 = getelementptr inbounds nuw %struct.lua_State, ptr %10, i32 0, i32 7
  %12 = load ptr, ptr %11, align 8, !tbaa !78
  %13 = getelementptr inbounds %union.TValue, ptr %12, i64 -3
  %14 = load i64, ptr %13, align 8, !tbaa !76
  %15 = trunc i64 %14 to i16
  %16 = zext i16 %15 to i32
  %17 = call ptr @ctype_raw(ptr noundef %9, i32 noundef %16)
  store ptr %17, ptr %7, align 8, !tbaa !69
  %18 = load ptr, ptr %7, align 8, !tbaa !69
  %19 = getelementptr inbounds nuw %struct.CType, ptr %18, i32 0, i32 0
  %20 = load i32, ptr %19, align 8, !tbaa !70
  %21 = lshr i32 %20, 28
  %22 = icmp eq i32 %21, 4
  br i1 %22, label %93, label %23

23:                                               ; preds = %3
  call void @llvm.lifetime.start.p0(i64 8, ptr %8) #9
  %24 = load ptr, ptr %4, align 8, !tbaa !4
  %25 = getelementptr inbounds nuw %struct.CTState, ptr %24, i32 0, i32 6
  %26 = getelementptr inbounds nuw %struct.CCallback, ptr %25, i32 0, i32 1
  %27 = getelementptr inbounds [8 x i64], ptr %26, i64 0, i64 0
  store ptr %27, ptr %8, align 8, !tbaa !90
  %28 = load ptr, ptr %7, align 8, !tbaa !69
  %29 = getelementptr inbounds nuw %struct.CType, ptr %28, i32 0, i32 0
  %30 = load i32, ptr %29, align 8, !tbaa !70
  %31 = and i32 %30, -201326592
  %32 = icmp eq i32 %31, 67108864
  br i1 %32, label %33, label %38

33:                                               ; preds = %23
  %34 = load ptr, ptr %4, align 8, !tbaa !4
  %35 = getelementptr inbounds nuw %struct.CTState, ptr %34, i32 0, i32 6
  %36 = getelementptr inbounds nuw %struct.CCallback, ptr %35, i32 0, i32 0
  %37 = getelementptr inbounds [8 x %union.FPRCBArg], ptr %36, i64 0, i64 0
  store ptr %37, ptr %8, align 8, !tbaa !90
  br label %38

38:                                               ; preds = %33, %23
  %39 = load ptr, ptr %4, align 8, !tbaa !4
  %40 = load ptr, ptr %7, align 8, !tbaa !69
  %41 = load ptr, ptr %8, align 8, !tbaa !90
  %42 = load ptr, ptr %6, align 8, !tbaa !60
  call void @lj_cconv_ct_tv(ptr noundef %39, ptr noundef %40, ptr noundef %41, ptr noundef %42, i32 noundef 0)
  %43 = load ptr, ptr %7, align 8, !tbaa !69
  %44 = getelementptr inbounds nuw %struct.CType, ptr %43, i32 0, i32 0
  %45 = load i32, ptr %44, align 8, !tbaa !70
  %46 = and i32 %45, -201326592
  %47 = icmp eq i32 %46, 0
  br i1 %47, label %48, label %92

48:                                               ; preds = %38
  %49 = load ptr, ptr %7, align 8, !tbaa !69
  %50 = getelementptr inbounds nuw %struct.CType, ptr %49, i32 0, i32 1
  %51 = load i32, ptr %50, align 4, !tbaa !80
  %52 = icmp ult i32 %51, 4
  br i1 %52, label %53, label %92

53:                                               ; preds = %48
  %54 = load ptr, ptr %7, align 8, !tbaa !69
  %55 = getelementptr inbounds nuw %struct.CType, ptr %54, i32 0, i32 0
  %56 = load i32, ptr %55, align 8, !tbaa !70
  %57 = and i32 %56, 8388608
  %58 = icmp ne i32 %57, 0
  br i1 %58, label %59, label %75

59:                                               ; preds = %53
  %60 = load ptr, ptr %7, align 8, !tbaa !69
  %61 = getelementptr inbounds nuw %struct.CType, ptr %60, i32 0, i32 1
  %62 = load i32, ptr %61, align 4, !tbaa !80
  %63 = icmp eq i32 %62, 1
  br i1 %63, label %64, label %68

64:                                               ; preds = %59
  %65 = load ptr, ptr %8, align 8, !tbaa !90
  %66 = load i8, ptr %65, align 1, !tbaa !76
  %67 = zext i8 %66 to i32
  br label %72

68:                                               ; preds = %59
  %69 = load ptr, ptr %8, align 8, !tbaa !90
  %70 = load i16, ptr %69, align 2, !tbaa !68
  %71 = zext i16 %70 to i32
  br label %72

72:                                               ; preds = %68, %64
  %73 = phi i32 [ %67, %64 ], [ %71, %68 ]
  %74 = load ptr, ptr %8, align 8, !tbaa !90
  store i32 %73, ptr %74, align 4, !tbaa !22
  br label %91

75:                                               ; preds = %53
  %76 = load ptr, ptr %7, align 8, !tbaa !69
  %77 = getelementptr inbounds nuw %struct.CType, ptr %76, i32 0, i32 1
  %78 = load i32, ptr %77, align 4, !tbaa !80
  %79 = icmp eq i32 %78, 1
  br i1 %79, label %80, label %84

80:                                               ; preds = %75
  %81 = load ptr, ptr %8, align 8, !tbaa !90
  %82 = load i8, ptr %81, align 1, !tbaa !76
  %83 = sext i8 %82 to i32
  br label %88

84:                                               ; preds = %75
  %85 = load ptr, ptr %8, align 8, !tbaa !90
  %86 = load i16, ptr %85, align 2, !tbaa !68
  %87 = sext i16 %86 to i32
  br label %88

88:                                               ; preds = %84, %80
  %89 = phi i32 [ %83, %80 ], [ %87, %84 ]
  %90 = load ptr, ptr %8, align 8, !tbaa !90
  store i32 %89, ptr %90, align 4, !tbaa !22
  br label %91

91:                                               ; preds = %88, %72
  br label %92

92:                                               ; preds = %91, %48, %38
  call void @llvm.lifetime.end.p0(i64 8, ptr %8) #9
  br label %93

93:                                               ; preds = %92, %3
  call void @llvm.lifetime.end.p0(i64 8, ptr %7) #9
  ret void
}

; Function Attrs: nounwind uwtable
define hidden void @lj_ccallback_leave(ptr noundef %0, ptr noundef %1) #0 {
  %3 = alloca ptr, align 8
  %4 = alloca ptr, align 8
  %5 = alloca ptr, align 8
  %6 = alloca ptr, align 8
  %7 = alloca ptr, align 8
  %8 = alloca ptr, align 8
  store ptr %0, ptr %3, align 8, !tbaa !4
  store ptr %1, ptr %4, align 8, !tbaa !60
  call void @llvm.lifetime.start.p0(i64 8, ptr %5) #9
  %9 = load ptr, ptr %3, align 8, !tbaa !4
  %10 = getelementptr inbounds nuw %struct.CTState, ptr %9, i32 0, i32 3
  %11 = load ptr, ptr %10, align 8, !tbaa !23
  store ptr %11, ptr %5, align 8, !tbaa !24
  call void @llvm.lifetime.start.p0(i64 8, ptr %6) #9
  call void @llvm.lifetime.start.p0(i64 8, ptr %7) #9
  %12 = load ptr, ptr %5, align 8, !tbaa !24
  %13 = getelementptr inbounds nuw %struct.lua_State, ptr %12, i32 0, i32 7
  %14 = load ptr, ptr %13, align 8, !tbaa !78
  store ptr %14, ptr %7, align 8, !tbaa !60
  %15 = load ptr, ptr %5, align 8, !tbaa !24
  %16 = getelementptr inbounds nuw %struct.lua_State, ptr %15, i32 0, i32 8
  %17 = load ptr, ptr %16, align 8, !tbaa !40
  %18 = load ptr, ptr %5, align 8, !tbaa !24
  %19 = getelementptr inbounds nuw %struct.lua_State, ptr %18, i32 0, i32 7
  store ptr %17, ptr %19, align 8, !tbaa !78
  %20 = load ptr, ptr %4, align 8, !tbaa !60
  %21 = load ptr, ptr %5, align 8, !tbaa !24
  %22 = getelementptr inbounds nuw %struct.lua_State, ptr %21, i32 0, i32 7
  %23 = load ptr, ptr %22, align 8, !tbaa !78
  %24 = icmp uge ptr %20, %23
  br i1 %24, label %25, label %61

25:                                               ; preds = %2
  %26 = load ptr, ptr %5, align 8, !tbaa !24
  %27 = getelementptr inbounds nuw %struct.lua_State, ptr %26, i32 0, i32 7
  %28 = load ptr, ptr %27, align 8, !tbaa !78
  %29 = getelementptr inbounds %union.TValue, ptr %28, i64 -2
  %30 = getelementptr inbounds nuw %struct.GCRef, ptr %29, i32 0, i32 0
  %31 = load i64, ptr %30, align 8, !tbaa !76
  %32 = and i64 %31, 140737488355327
  %33 = inttoptr i64 %32 to ptr
  store ptr %33, ptr %6, align 8, !tbaa !77
  %34 = load ptr, ptr %6, align 8, !tbaa !77
  %35 = getelementptr inbounds nuw %struct.GCfuncC, ptr %34, i32 0, i32 3
  %36 = load i8, ptr %35, align 2, !tbaa !76
  %37 = zext i8 %36 to i32
  %38 = icmp eq i32 %37, 0
  br i1 %38, label %39, label %60

39:                                               ; preds = %25
  call void @llvm.lifetime.start.p0(i64 8, ptr %8) #9
  %40 = load ptr, ptr %6, align 8, !tbaa !77
  %41 = getelementptr inbounds nuw %struct.GCfuncL, ptr %40, i32 0, i32 7
  %42 = getelementptr inbounds nuw %struct.MRef, ptr %41, i32 0, i32 0
  %43 = load i64, ptr %42, align 8, !tbaa !76
  %44 = inttoptr i64 %43 to ptr
  %45 = getelementptr inbounds i8, ptr %44, i64 -104
  store ptr %45, ptr %8, align 8, !tbaa !87
  %46 = load ptr, ptr %8, align 8, !tbaa !87
  %47 = getelementptr inbounds nuw i8, ptr %46, i64 104
  %48 = load ptr, ptr %8, align 8, !tbaa !87
  %49 = getelementptr inbounds nuw %struct.GCproto, ptr %48, i32 0, i32 5
  %50 = load i32, ptr %49, align 4, !tbaa !88
  %51 = zext i32 %50 to i64
  %52 = getelementptr inbounds nuw i32, ptr %47, i64 %51
  %53 = getelementptr inbounds i32, ptr %52, i64 1
  %54 = ptrtoint ptr %53 to i64
  %55 = load ptr, ptr %5, align 8, !tbaa !24
  %56 = getelementptr inbounds nuw %struct.lua_State, ptr %55, i32 0, i32 13
  %57 = load ptr, ptr %56, align 8, !tbaa !58
  %58 = getelementptr inbounds i8, ptr %57, i64 24
  %59 = getelementptr inbounds nuw %struct.MRef, ptr %58, i32 0, i32 0
  store i64 %54, ptr %59, align 8, !tbaa !59
  call void @llvm.lifetime.end.p0(i64 8, ptr %8) #9
  br label %60

60:                                               ; preds = %39, %25
  br label %61

61:                                               ; preds = %60, %2
  %62 = load ptr, ptr %3, align 8, !tbaa !4
  %63 = load ptr, ptr %5, align 8, !tbaa !24
  %64 = load ptr, ptr %4, align 8, !tbaa !60
  call void @callback_conv_result(ptr noundef %62, ptr noundef %63, ptr noundef %64)
  %65 = load ptr, ptr %5, align 8, !tbaa !24
  %66 = getelementptr inbounds nuw %struct.lua_State, ptr %65, i32 0, i32 8
  %67 = load ptr, ptr %66, align 8, !tbaa !40
  %68 = getelementptr inbounds %union.TValue, ptr %67, i64 -4
  store ptr %68, ptr %66, align 8, !tbaa !40
  %69 = load ptr, ptr %7, align 8, !tbaa !60
  %70 = load ptr, ptr %5, align 8, !tbaa !24
  %71 = getelementptr inbounds nuw %struct.lua_State, ptr %70, i32 0, i32 7
  store ptr %69, ptr %71, align 8, !tbaa !78
  %72 = load ptr, ptr %5, align 8, !tbaa !24
  %73 = getelementptr inbounds nuw %struct.lua_State, ptr %72, i32 0, i32 13
  %74 = load ptr, ptr %73, align 8, !tbaa !58
  %75 = getelementptr inbounds i8, ptr %74, i64 32
  %76 = load ptr, ptr %75, align 8, !tbaa !9
  %77 = load ptr, ptr %5, align 8, !tbaa !24
  %78 = getelementptr inbounds nuw %struct.lua_State, ptr %77, i32 0, i32 13
  store ptr %76, ptr %78, align 8, !tbaa !58
  %79 = load ptr, ptr %3, align 8, !tbaa !4
  %80 = getelementptr inbounds nuw %struct.CTState, ptr %79, i32 0, i32 6
  %81 = getelementptr inbounds nuw %struct.CCallback, ptr %80, i32 0, i32 7
  store i32 0, ptr %81, align 8, !tbaa !65
  call void @llvm.lifetime.end.p0(i64 8, ptr %7) #9
  call void @llvm.lifetime.end.p0(i64 8, ptr %6) #9
  call void @llvm.lifetime.end.p0(i64 8, ptr %5) #9
  ret void
}