; Function Attrs: nounwind uwtable
define hidden void @lj_ccallback_leave(ptr noundef %0, ptr noundef %1) local_unnamed_addr #1 {
  %3 = getelementptr inbounds nuw i8, ptr %0, i64 16
  %4 = load ptr, ptr %3, align 8, !tbaa !17
  %5 = getelementptr inbounds nuw i8, ptr %4, i64 32
  %6 = load ptr, ptr %5, align 8, !tbaa !68
  %7 = getelementptr inbounds nuw i8, ptr %4, i64 40
  %8 = load ptr, ptr %7, align 8, !tbaa !33
  store ptr %8, ptr %5, align 8, !tbaa !68
  %.not = icmp ult ptr %1, %8
  br i1 %.not, label %30, label %9

9:                                                ; preds = %2
  %10 = getelementptr inbounds i8, ptr %8, i64 -16
  %11 = load i64, ptr %10, align 8, !tbaa !36
  %12 = and i64 %11, 140737488355327
  %13 = inttoptr i64 %12 to ptr
  %14 = getelementptr inbounds nuw i8, ptr %13, i64 10
  %15 = load i8, ptr %14, align 2, !tbaa !36
  %16 = icmp eq i8 %15, 0
  br i1 %16, label %17, label %30

17:                                               ; preds = %9
  %18 = getelementptr inbounds nuw i8, ptr %13, i64 32
  %19 = load i64, ptr %18, align 8, !tbaa !36
  %20 = inttoptr i64 %19 to ptr
  %21 = getelementptr inbounds i8, ptr %20, i64 -92
  %22 = load i32, ptr %21, align 4, !tbaa !80
  %23 = zext i32 %22 to i64
  %24 = getelementptr inbounds nuw i32, ptr %20, i64 %23
  %25 = getelementptr inbounds nuw i8, ptr %24, i64 4
  %26 = ptrtoint ptr %25 to i64
  %27 = getelementptr inbounds nuw i8, ptr %4, i64 80
  %28 = load ptr, ptr %27, align 8, !tbaa !52
  %29 = getelementptr inbounds nuw i8, ptr %28, i64 24
  store i64 %26, ptr %29, align 8, !tbaa !54
  br label %30

30:                                               ; preds = %9, %17, %2
  %31 = getelementptr i8, ptr %8, i64 -24
  %.val.val = load i64, ptr %31, align 8, !tbaa !36
  %32 = and i64 %.val.val, 65535
  %33 = load ptr, ptr %0, align 8, !tbaa !61
  br label %34

34:                                               ; preds = %34, %30
  %.pn.i = phi i64 [ %32, %30 ], [ %38, %34 ]
  %.0.i.i = getelementptr inbounds nuw %struct.CType, ptr %33, i64 %.pn.i
  %35 = load i32, ptr %.0.i.i, align 8, !tbaa !62
  %36 = icmp slt i32 %35, -1879048192
  %37 = and i32 %35, 65535
  %38 = zext nneg i32 %37 to i64
  br i1 %36, label %34, label %ctype_raw.exit.i, !llvm.loop !82

ctype_raw.exit.i:                                 ; preds = %34
  %.mask.i = and i32 %35, -268435456
  %39 = icmp eq i32 %.mask.i, 1073741824
  br i1 %39, label %callback_conv_result.exit, label %40

40:                                               ; preds = %ctype_raw.exit.i
  %41 = and i32 %35, -201326592
  %42 = icmp eq i32 %41, 67108864
  %spec.select.v.i = select i1 %42, i64 40, i64 104
  %spec.select.i = getelementptr inbounds nuw i8, ptr %0, i64 %spec.select.v.i
  tail call void @lj_cconv_ct_tv(ptr noundef nonnull %0, ptr noundef nonnull %.0.i.i, ptr noundef nonnull %spec.select.i, ptr noundef %1, i32 noundef 0) #7
  %43 = load i32, ptr %.0.i.i, align 8, !tbaa !62
  %44 = and i32 %43, -201326592
  %45 = icmp eq i32 %44, 0
  br i1 %45, label %46, label %callback_conv_result.exit

46:                                               ; preds = %40
  %47 = getelementptr inbounds nuw i8, ptr %.0.i.i, i64 4
  %48 = load i32, ptr %47, align 4, !tbaa !73
  %49 = icmp ult i32 %48, 4
  br i1 %49, label %50, label %callback_conv_result.exit

50:                                               ; preds = %46
  %51 = and i32 %43, 8388608
  %.not.i = icmp eq i32 %51, 0
  %52 = icmp eq i32 %48, 1
  br i1 %.not.i, label %60, label %53

53:                                               ; preds = %50
  br i1 %52, label %54, label %57

54:                                               ; preds = %53
  %55 = load i8, ptr %spec.select.i, align 1, !tbaa !36
  %56 = zext i8 %55 to i32
  br label %.sink.split.i

57:                                               ; preds = %53
  %58 = load i16, ptr %spec.select.i, align 2, !tbaa !60
  %59 = zext i16 %58 to i32
  br label %.sink.split.i

60:                                               ; preds = %50
  br i1 %52, label %61, label %64

61:                                               ; preds = %60
  %62 = load i8, ptr %spec.select.i, align 1, !tbaa !36
  %63 = sext i8 %62 to i32
  br label %.sink.split.i

64:                                               ; preds = %60
  %65 = load i16, ptr %spec.select.i, align 2, !tbaa !60
  %66 = sext i16 %65 to i32
  br label %.sink.split.i

.sink.split.i:                                    ; preds = %64, %61, %57, %54
  %.sink.i = phi i32 [ %56, %54 ], [ %59, %57 ], [ %63, %61 ], [ %66, %64 ]
  store i32 %.sink.i, ptr %spec.select.i, align 4, !tbaa !55
  br label %callback_conv_result.exit

callback_conv_result.exit:                        ; preds = %ctype_raw.exit.i, %40, %46, %.sink.split.i
  %67 = load ptr, ptr %7, align 8, !tbaa !33
  %68 = getelementptr inbounds i8, ptr %67, i64 -32
  store ptr %68, ptr %7, align 8, !tbaa !33
  store ptr %6, ptr %5, align 8, !tbaa !68
  %69 = getelementptr inbounds nuw i8, ptr %4, i64 80
  %70 = load ptr, ptr %69, align 8, !tbaa !52
  %71 = getelementptr inbounds nuw i8, ptr %70, i64 32
  %72 = load ptr, ptr %71, align 8, !tbaa !53
  store ptr %72, ptr %69, align 8, !tbaa !52
  %73 = getelementptr inbounds nuw i8, ptr %0, i64 200
  store i32 0, ptr %73, align 8, !tbaa !57
  ret void
}